; Function Attrs: mustprogress nofree norecurse nosync nounwind willreturn memory(argmem: write) uwtable
define void @_ZN11ComprDataIO8SetFilesEP4FileS1_(ptr noundef nonnull writeonly align 8 captures(none) dereferenceable(266) initializes((144, 148)) %0, ptr noundef %1, ptr noundef %2) local_unnamed_addr #4 align 2 {
  %.not = icmp eq ptr %1, null
  br i1 %.not, label %6, label %4

4:                                                ; preds = %3
  %5 = getelementptr inbounds nuw i8, ptr %0, i64 88
  store ptr %1, ptr %5, align 8
  br label %6

6:                                                ; preds = %4, %3
  %.not6 = icmp eq ptr %2, null
  br i1 %.not6, label %9, label %7

7:                                                ; preds = %6
  %8 = getelementptr inbounds nuw i8, ptr %0, i64 96
  store ptr %2, ptr %8, align 8
  br label %9

9:                                                ; preds = %7, %6
  %10 = getelementptr inbounds nuw i8, ptr %0, i64 144
  store i32 -1, ptr %10, align 8
  ret void
}